target datalayout = "e-m:e-p270:32:32-p271:32:32-p272:64:64-i64:64-i128:128-f80:128-n8:16:32:64-S128"
target triple = "x86_64-pc-linux-gnu"

%struct.GCtab = type { %struct.GCRef, i8, i8, i8, i8, %struct.MRef, %struct.GCRef, %struct.GCRef, %struct.MRef, i32, i32, %struct.MRef }
%struct.GCRef = type { i64 }
%struct.MRef = type { i64 }
%struct.Node = type { %union.TValue, %union.TValue, %struct.MRef }
%union.TValue = type { i64 }
%struct.anon.0 = type { i32, i32 }

; Function Attrs: alwaysinline nounwind uwtable
define internal ptr @hashmask(ptr noundef %0, i32 noundef %1) #2 {
  %3 = alloca ptr, align 8
  %4 = alloca i32, align 4
  %5 = alloca ptr, align 8
  store ptr %0, ptr %3, align 8, !tbaa !11
  store i32 %1, ptr %4, align 4, !tbaa !9
  call void @llvm.lifetime.start.p0(i64 8, ptr %5) #9
  %6 = load ptr, ptr %3, align 8, !tbaa !11
  %7 = getelementptr inbounds nuw %struct.GCtab, ptr %6, i32 0, i32 8
  %8 = getelementptr inbounds nuw %struct.MRef, ptr %7, i32 0, i32 0
  %9 = load i64, ptr %8, align 8, !tbaa !29
  %10 = inttoptr i64 %9 to ptr
  store ptr %10, ptr %5, align 8, !tbaa !27
  %11 = load ptr, ptr %5, align 8, !tbaa !27
  %12 = load i32, ptr %4, align 4, !tbaa !9
  %13 = load ptr, ptr %3, align 8, !tbaa !11
  %14 = getelementptr inbounds nuw %struct.GCtab, ptr %13, i32 0, i32 10
  %15 = load i32, ptr %14, align 4, !tbaa !13
  %16 = and i32 %12, %15
  %17 = zext i32 %16 to i64
  %18 = getelementptr inbounds nuw %struct.Node, ptr %11, i64 %17
  call void @llvm.lifetime.end.p0(i64 8, ptr %5) #9
  ret ptr %18
}

; Function Attrs: alwaysinline nounwind uwtable
define internal i32 @hashrot(i32 noundef %0, i32 noundef %1) #2 {
  %3 = alloca i32, align 4
  %4 = alloca i32, align 4
  store i32 %0, ptr %3, align 4, !tbaa !9
  store i32 %1, ptr %4, align 4, !tbaa !9
  %5 = load i32, ptr %4, align 4, !tbaa !9
  %6 = load i32, ptr %3, align 4, !tbaa !9
  %7 = xor i32 %6, %5
  store i32 %7, ptr %3, align 4, !tbaa !9
  %8 = load i32, ptr %4, align 4, !tbaa !9
  %9 = shl i32 %8, 14
  %10 = load i32, ptr %4, align 4, !tbaa !9
  %11 = lshr i32 %10, 18
  %12 = or i32 %9, %11
  store i32 %12, ptr %4, align 4, !tbaa !9
  %13 = load i32, ptr %4, align 4, !tbaa !9
  %14 = load i32, ptr %3, align 4, !tbaa !9
  %15 = sub i32 %14, %13
  store i32 %15, ptr %3, align 4, !tbaa !9
  %16 = load i32, ptr %4, align 4, !tbaa !9
  %17 = shl i32 %16, 5
  %18 = load i32, ptr %4, align 4, !tbaa !9
  %19 = lshr i32 %18, 27
  %20 = or i32 %17, %19
  store i32 %20, ptr %4, align 4, !tbaa !9
  %21 = load i32, ptr %3, align 4, !tbaa !9
  %22 = load i32, ptr %4, align 4, !tbaa !9
  %23 = xor i32 %22, %21
  store i32 %23, ptr %4, align 4, !tbaa !9
  %24 = load i32, ptr %3, align 4, !tbaa !9
  %25 = shl i32 %24, 13
  %26 = load i32, ptr %3, align 4, !tbaa !9
  %27 = lshr i32 %26, 19
  %28 = or i32 %25, %27
  %29 = load i32, ptr %4, align 4, !tbaa !9
  %30 = sub i32 %29, %28
  store i32 %30, ptr %4, align 4, !tbaa !9
  %31 = load i32, ptr %4, align 4, !tbaa !9
  ret i32 %31
}

; Function Attrs: nounwind uwtable
define hidden ptr @lj_tab_getinth(ptr noundef %0, i32 noundef %1) #0 {
  %3 = alloca ptr, align 8
  %4 = alloca ptr, align 8
  %5 = alloca i32, align 4
  %6 = alloca %union.TValue, align 8
  %7 = alloca ptr, align 8
  %8 = alloca i32, align 4
  store ptr %0, ptr %4, align 8, !tbaa !11
  store i32 %1, ptr %5, align 4, !tbaa !9
  call void @llvm.lifetime.start.p0(i64 8, ptr %6) #9
  call void @llvm.lifetime.start.p0(i64 8, ptr %7) #9
  %9 = load i32, ptr %5, align 4, !tbaa !9
  %10 = sitofp i32 %9 to double
  store double %10, ptr %6, align 8, !tbaa !32
  %11 = load ptr, ptr %4, align 8, !tbaa !11
  %12 = getelementptr inbounds nuw %struct.anon.0, ptr %6, i32 0, i32 0
  %13 = load i32, ptr %12, align 8, !tbaa !32
  %14 = getelementptr inbounds nuw %struct.anon.0, ptr %6, i32 0, i32 1
  %15 = load i32, ptr %14, align 4, !tbaa !32
  %16 = shl i32 %15, 1
  %17 = call i32 @hashrot(i32 noundef %13, i32 noundef %16)
  %18 = call ptr @hashmask(ptr noundef %11, i32 noundef %17)
  store ptr %18, ptr %7, align 8, !tbaa !27
  br label %19

19:                                               ; preds = %36, %2
  %20 = load ptr, ptr %7, align 8, !tbaa !27
  %21 = getelementptr inbounds nuw %struct.Node, ptr %20, i32 0, i32 1
  %22 = load i64, ptr %21, align 8, !tbaa !32
  %23 = ashr i64 %22, 47
  %24 = trunc i64 %23 to i32
  %25 = icmp ult i32 %24, -14
  br i1 %25, label %26, label %35

26:                                               ; preds = %19
  %27 = load ptr, ptr %7, align 8, !tbaa !27
  %28 = getelementptr inbounds nuw %struct.Node, ptr %27, i32 0, i32 1
  %29 = load double, ptr %28, align 8, !tbaa !32
  %30 = load double, ptr %6, align 8, !tbaa !32
  %31 = fcmp oeq double %29, %30
  br i1 %31, label %32, label %35

32:                                               ; preds = %26
  %33 = load ptr, ptr %7, align 8, !tbaa !27
  %34 = getelementptr inbounds nuw %struct.Node, ptr %33, i32 0, i32 0
  store ptr %34, ptr %3, align 8
  store i32 1, ptr %8, align 4
  br label %44

35:                                               ; preds = %26, %19
  br label %36

36:                                               ; preds = %35
  %37 = load ptr, ptr %7, align 8, !tbaa !27
  %38 = getelementptr inbounds nuw %struct.Node, ptr %37, i32 0, i32 2
  %39 = getelementptr inbounds nuw %struct.MRef, ptr %38, i32 0, i32 0
  %40 = load i64, ptr %39, align 8, !tbaa !35
  %41 = inttoptr i64 %40 to ptr
  store ptr %41, ptr %7, align 8, !tbaa !27
  %42 = icmp ne ptr %41, null
  br i1 %42, label %19, label %43, !llvm.loop !65

43:                                               ; preds = %36
  store ptr null, ptr %3, align 8
  store i32 1, ptr %8, align 4
  br label %44

44:                                               ; preds = %43, %32
  call void @llvm.lifetime.end.p0(i64 8, ptr %7) #9
  call void @llvm.lifetime.end.p0(i64 8, ptr %6) #9
  %45 = load ptr, ptr %3, align 8
  ret ptr %45
}

; Function Attrs: noinline nounwind uwtable
define internal i32 @tab_len_slow(ptr noundef %0, i64 noundef %1) #8 {
  %3 = alloca i32, align 4
  %4 = alloca ptr, align 8
  %5 = alloca i64, align 8
  %6 = alloca ptr, align 8
  %7 = alloca i64, align 8
  %8 = alloca i32, align 4
  %9 = alloca i64, align 8
  %10 = alloca ptr, align 8
  store ptr %0, ptr %4, align 8, !tbaa !11
  store i64 %1, ptr %5, align 8, !tbaa !39
  call void @llvm.lifetime.start.p0(i64 8, ptr %6) #9
  call void @llvm.lifetime.start.p0(i64 8, ptr %7) #9
  %11 = load i64, ptr %5, align 8, !tbaa !39
  store i64 %11, ptr %7, align 8, !tbaa !39
  %12 = load i64, ptr %5, align 8, !tbaa !39
  %13 = add i64 %12, 1
  store i64 %13, ptr %5, align 8, !tbaa !39
  br label %14

14:                                               ; preds = %93, %2
  %15 = load i64, ptr %5, align 8, !tbaa !39
  %16 = trunc i64 %15 to i32
  %17 = load ptr, ptr %4, align 8, !tbaa !11
  %18 = getelementptr inbounds nuw %struct.GCtab, ptr %17, i32 0, i32 9
  %19 = load i32, ptr %18, align 8, !tbaa !23
  %20 = icmp ult i32 %16, %19
  br i1 %20, label %21, label %31

21:                                               ; preds = %14
  %22 = load ptr, ptr %4, align 8, !tbaa !11
  %23 = getelementptr inbounds nuw %struct.GCtab, ptr %22, i32 0, i32 5
  %24 = getelementptr inbounds nuw %struct.MRef, ptr %23, i32 0, i32 0
  %25 = load i64, ptr %24, align 8, !tbaa !21
  %26 = inttoptr i64 %25 to ptr
  %27 = load i64, ptr %5, align 8, !tbaa !39
  %28 = trunc i64 %27 to i32
  %29 = sext i32 %28 to i64
  %30 = getelementptr inbounds %union.TValue, ptr %26, i64 %29
  br label %36

31:                                               ; preds = %14
  %32 = load ptr, ptr %4, align 8, !tbaa !11
  %33 = load i64, ptr %5, align 8, !tbaa !39
  %34 = trunc i64 %33 to i32
  %35 = call ptr @lj_tab_getinth(ptr noundef %32, i32 noundef %34)
  br label %36

36:                                               ; preds = %31, %21
  %37 = phi ptr [ %30, %21 ], [ %35, %31 ]
  store ptr %37, ptr %6, align 8, !tbaa !31
  %38 = icmp ne ptr %37, null
  br i1 %38, label %39, label %44

39:                                               ; preds = %36
  %40 = load ptr, ptr %6, align 8, !tbaa !31
  %41 = load i64, ptr %40, align 8, !tbaa !32
  %42 = icmp eq i64 %41, -1
  %43 = xor i1 %42, true
  br label %44

44:                                               ; preds = %39, %36
  %45 = phi i1 [ false, %36 ], [ %43, %39 ]
  br i1 %45, label %46, label %94

46:                                               ; preds = %44
  %47 = load i64, ptr %5, align 8, !tbaa !39
  store i64 %47, ptr %7, align 8, !tbaa !39
  %48 = load i64, ptr %5, align 8, !tbaa !39
  %49 = load i64, ptr %5, align 8, !tbaa !39
  %50 = add i64 %49, %48
  store i64 %50, ptr %5, align 8, !tbaa !39
  %51 = load i64, ptr %5, align 8, !tbaa !39
  %52 = icmp ugt i64 %51, 2147483645
  br i1 %52, label %53, label %93

53:                                               ; preds = %46
  store i64 1, ptr %7, align 8, !tbaa !39
  br label %54

54:                                               ; preds = %86, %53
  %55 = load i64, ptr %7, align 8, !tbaa !39
  %56 = trunc i64 %55 to i32
  %57 = load ptr, ptr %4, align 8, !tbaa !11
  %58 = getelementptr inbounds nuw %struct.GCtab, ptr %57, i32 0, i32 9
  %59 = load i32, ptr %58, align 8, !tbaa !23
  %60 = icmp ult i32 %56, %59
  br i1 %60, label %61, label %71

61:                                               ; preds = %54
  %62 = load ptr, ptr %4, align 8, !tbaa !11
  %63 = getelementptr inbounds nuw %struct.GCtab, ptr %62, i32 0, i32 5
  %64 = getelementptr inbounds nuw %struct.MRef, ptr %63, i32 0, i32 0
  %65 = load i64, ptr %64, align 8, !tbaa !21
  %66 = inttoptr i64 %65 to ptr
  %67 = load i64, ptr %7, align 8, !tbaa !39
  %68 = trunc i64 %67 to i32
  %69 = sext i32 %68 to i64
  %70 = getelementptr inbounds %union.TValue, ptr %66, i64 %69
  br label %76

71:                                               ; preds = %54
  %72 = load ptr, ptr %4, align 8, !tbaa !11
  %73 = load i64, ptr %7, align 8, !tbaa !39
  %74 = trunc i64 %73 to i32
  %75 = call ptr @lj_tab_getinth(ptr noundef %72, i32 noundef %74)
  br label %76

76:                                               ; preds = %71, %61
  %77 = phi ptr [ %70, %61 ], [ %75, %71 ]
  store ptr %77, ptr %6, align 8, !tbaa !31
  %78 = icmp ne ptr %77, null
  br i1 %78, label %79, label %84

79:                                               ; preds = %76
  %80 = load ptr, ptr %6, align 8, !tbaa !31
  %81 = load i64, ptr %80, align 8, !tbaa !32
  %82 = icmp eq i64 %81, -1
  %83 = xor i1 %82, true
  br label %84

84:                                               ; preds = %79, %76
  %85 = phi i1 [ false, %76 ], [ %83, %79 ]
  br i1 %85, label %86, label %89

86:                                               ; preds = %84
  %87 = load i64, ptr %7, align 8, !tbaa !39
  %88 = add i64 %87, 1
  store i64 %88, ptr %7, align 8, !tbaa !39
  br label %54, !llvm.loop !86

89:                                               ; preds = %84
  %90 = load i64, ptr %7, align 8, !tbaa !39
  %91 = sub i64 %90, 1
  %92 = trunc i64 %91 to i32
  store i32 %92, ptr %3, align 4
  store i32 1, ptr %8, align 4
  br label %142

93:                                               ; preds = %46
  br label %14, !llvm.loop !87

94:                                               ; preds = %44
  br label %95

95:                                               ; preds = %138, %94
  %96 = load i64, ptr %5, align 8, !tbaa !39
  %97 = load i64, ptr %7, align 8, !tbaa !39
  %98 = sub i64 %96, %97
  %99 = icmp ugt i64 %98, 1
  br i1 %99, label %100, label %139

100:                                              ; preds = %95
  call void @llvm.lifetime.start.p0(i64 8, ptr %9) #9
  %101 = load i64, ptr %7, align 8, !tbaa !39
  %102 = load i64, ptr %5, align 8, !tbaa !39
  %103 = add i64 %101, %102
  %104 = lshr i64 %103, 1
  store i64 %104, ptr %9, align 8, !tbaa !39
  call void @llvm.lifetime.start.p0(i64 8, ptr %10) #9
  %105 = load i64, ptr %9, align 8, !tbaa !39
  %106 = trunc i64 %105 to i32
  %107 = load ptr, ptr %4, align 8, !tbaa !11
  %108 = getelementptr inbounds nuw %struct.GCtab, ptr %107, i32 0, i32 9
  %109 = load i32, ptr %108, align 8, !tbaa !23
  %110 = icmp ult i32 %106, %109
  br i1 %110, label %111, label %121

111:                                              ; preds = %100
  %112 = load ptr, ptr %4, align 8, !tbaa !11
  %113 = getelementptr inbounds nuw %struct.GCtab, ptr %112, i32 0, i32 5
  %114 = getelementptr inbounds nuw %struct.MRef, ptr %113, i32 0, i32 0
  %115 = load i64, ptr %114, align 8, !tbaa !21
  %116 = inttoptr i64 %115 to ptr
  %117 = load i64, ptr %9, align 8, !tbaa !39
  %118 = trunc i64 %117 to i32
  %119 = sext i32 %118 to i64
  %120 = getelementptr inbounds %union.TValue, ptr %116, i64 %119
  br label %126

121:                                              ; preds = %100
  %122 = load ptr, ptr %4, align 8, !tbaa !11
  %123 = load i64, ptr %9, align 8, !tbaa !39
  %124 = trunc i64 %123 to i32
  %125 = call ptr @lj_tab_getinth(ptr noundef %122, i32 noundef %124)
  br label %126

126:                                              ; preds = %121, %111
  %127 = phi ptr [ %120, %111 ], [ %125, %121 ]
  store ptr %127, ptr %10, align 8, !tbaa !31
  %128 = load ptr, ptr %10, align 8, !tbaa !31
  %129 = icmp ne ptr %128, null
  br i1 %129, label %130, label %136

130:                                              ; preds = %126
  %131 = load ptr, ptr %10, align 8, !tbaa !31
  %132 = load i64, ptr %131, align 8, !tbaa !32
  %133 = icmp eq i64 %132, -1
  br i1 %133, label %136, label %134

134:                                              ; preds = %130
  %135 = load i64, ptr %9, align 8, !tbaa !39
  store i64 %135, ptr %7, align 8, !tbaa !39
  br label %138

136:                                              ; preds = %130, %126
  %137 = load i64, ptr %9, align 8, !tbaa !39
  store i64 %137, ptr %5, align 8, !tbaa !39
  br label %138

138:                                              ; preds = %136, %134
  call void @llvm.lifetime.end.p0(i64 8, ptr %10) #9
  call void @llvm.lifetime.end.p0(i64 8, ptr %9) #9
  br label %95, !llvm.loop !88

139:                                              ; preds = %95
  %140 = load i64, ptr %7, align 8, !tbaa !39
  %141 = trunc i64 %140 to i32
  store i32 %141, ptr %3, align 4
  store i32 1, ptr %8, align 4
  br label %142

142:                                              ; preds = %139, %89
  call void @llvm.lifetime.end.p0(i64 8, ptr %7) #9
  call void @llvm.lifetime.end.p0(i64 8, ptr %6) #9
  %143 = load i32, ptr %3, align 4
  ret i32 %143
}