; Function Attrs: nofree noinline norecurse nosync nounwind memory(read, inaccessiblemem: none) uwtable
define internal fastcc i32 @tab_len_slow(ptr noundef readonly captures(none) %0, i64 noundef range(i64 0, 4294967295) %1) unnamed_addr #8 {
  %3 = add nuw nsw i64 %1, 1
  %4 = getelementptr inbounds nuw i8, ptr %0, i64 48
  %5 = load i32, ptr %4, align 8, !tbaa !4
  %6 = getelementptr inbounds nuw i8, ptr %0, i64 40
  %7 = getelementptr inbounds nuw i8, ptr %0, i64 52
  %8 = getelementptr inbounds nuw i8, ptr %0, i64 16
  br label %9

9:                                                ; preds = %45, %2
  %.040 = phi i64 [ %1, %2 ], [ %.039, %45 ]
  %.039 = phi i64 [ %3, %2 ], [ %46, %45 ]
  %10 = trunc nuw i64 %.039 to i32
  %11 = icmp ugt i32 %5, %10
  br i1 %11, label %lj_tab_getinth.exit, label %12

12:                                               ; preds = %9
  %13 = sitofp i32 %10 to double
  %14 = bitcast double %13 to i64
  %.sroa.0.0.extract.trunc.i = trunc i64 %14 to i32
  %sh.diff.i = lshr i64 %14, 31
  %tr.sh.diff.i = trunc i64 %sh.diff.i to i32
  %15 = and i32 %tr.sh.diff.i, -2
  %16 = xor i32 %15, %.sroa.0.0.extract.trunc.i
  %17 = tail call i32 @llvm.fshl.i32(i32 %15, i32 %15, i32 14)
  %18 = sub i32 %16, %17
  %19 = tail call i32 @llvm.fshl.i32(i32 %17, i32 %17, i32 5)
  %20 = xor i32 %19, %18
  %21 = tail call i32 @llvm.fshl.i32(i32 %18, i32 %18, i32 13)
  %22 = sub i32 %20, %21
  %23 = load i64, ptr %6, align 8, !tbaa !15
  %24 = inttoptr i64 %23 to ptr
  %25 = load i32, ptr %7, align 4, !tbaa !14
  %26 = and i32 %25, %22
  %27 = zext i32 %26 to i64
  %28 = getelementptr inbounds nuw %struct.Node, ptr %24, i64 %27
  br label %29

29:                                               ; preds = %35, %12
  %.0.i = phi ptr [ %28, %12 ], [ %38, %35 ]
  %30 = getelementptr inbounds nuw i8, ptr %.0.i, i64 8
  %31 = load i64, ptr %30, align 8
  %32 = icmp ult i64 %31, -1970324836974592
  %33 = bitcast i64 %31 to double
  %34 = fcmp oeq double %33, %13
  %or.cond.i = and i1 %32, %34
  br i1 %or.cond.i, label %lj_tab_getinth.exit.thread76, label %35

35:                                               ; preds = %29
  %36 = getelementptr inbounds nuw i8, ptr %.0.i, i64 16
  %37 = load i64, ptr %36, align 8, !tbaa !16
  %38 = inttoptr i64 %37 to ptr
  %.not.i = icmp eq i64 %37, 0
  br i1 %.not.i, label %.critedge, label %29, !llvm.loop !50

lj_tab_getinth.exit:                              ; preds = %9
  %39 = load i64, ptr %8, align 8, !tbaa !12
  %40 = inttoptr i64 %39 to ptr
  %sext = shl i64 %.039, 32
  %41 = ashr exact i64 %sext, 29
  %42 = getelementptr inbounds i8, ptr %40, i64 %41
  %.not = icmp eq i64 %39, 0
  br i1 %.not, label %.critedge, label %lj_tab_getinth.exit.thread76

lj_tab_getinth.exit.thread76:                     ; preds = %29, %lj_tab_getinth.exit
  %43 = phi ptr [ %42, %lj_tab_getinth.exit ], [ %.0.i, %29 ]
  %44 = load i64, ptr %43, align 8, !tbaa !13
  %.not53 = icmp eq i64 %44, -1
  br i1 %.not53, label %.critedge, label %45

45:                                               ; preds = %lj_tab_getinth.exit.thread76
  %46 = shl nuw nsw i64 %.039, 1
  %47 = icmp samesign ugt i64 %.039, 1073741822
  br i1 %47, label %.preheader, label %9, !llvm.loop !70

.preheader:                                       ; preds = %45, %lj_tab_getinth.exit66.thread79
  %.141 = phi i64 [ %83, %lj_tab_getinth.exit66.thread79 ], [ 1, %45 ]
  %48 = trunc i64 %.141 to i32
  %49 = icmp ugt i32 %5, %48
  br i1 %49, label %lj_tab_getinth.exit66, label %50

50:                                               ; preds = %.preheader
  %51 = sitofp i32 %48 to double
  %52 = bitcast double %51 to i64
  %.sroa.0.0.extract.trunc.i59 = trunc i64 %52 to i32
  %sh.diff.i60 = lshr i64 %52, 31
  %tr.sh.diff.i61 = trunc i64 %sh.diff.i60 to i32
  %53 = and i32 %tr.sh.diff.i61, -2
  %54 = xor i32 %53, %.sroa.0.0.extract.trunc.i59
  %55 = tail call i32 @llvm.fshl.i32(i32 %53, i32 %53, i32 14)
  %56 = sub i32 %54, %55
  %57 = tail call i32 @llvm.fshl.i32(i32 %55, i32 %55, i32 5)
  %58 = xor i32 %57, %56
  %59 = tail call i32 @llvm.fshl.i32(i32 %56, i32 %56, i32 13)
  %60 = sub i32 %58, %59
  %61 = load i64, ptr %6, align 8, !tbaa !15
  %62 = inttoptr i64 %61 to ptr
  %63 = load i32, ptr %7, align 4, !tbaa !14
  %64 = and i32 %63, %60
  %65 = zext i32 %64 to i64
  %66 = getelementptr inbounds nuw %struct.Node, ptr %62, i64 %65
  br label %67

67:                                               ; preds = %73, %50
  %.0.i62 = phi ptr [ %66, %50 ], [ %76, %73 ]
  %68 = getelementptr inbounds nuw i8, ptr %.0.i62, i64 8
  %69 = load i64, ptr %68, align 8
  %70 = icmp ult i64 %69, -1970324836974592
  %71 = bitcast i64 %69 to double
  %72 = fcmp oeq double %71, %51
  %or.cond.i63 = and i1 %70, %72
  br i1 %or.cond.i63, label %lj_tab_getinth.exit66.thread79, label %73

73:                                               ; preds = %67
  %74 = getelementptr inbounds nuw i8, ptr %.0.i62, i64 16
  %75 = load i64, ptr %74, align 8, !tbaa !16
  %76 = inttoptr i64 %75 to ptr
  %.not.i64 = icmp eq i64 %75, 0
  br i1 %.not.i64, label %.critedge2, label %67, !llvm.loop !50

lj_tab_getinth.exit66:                            ; preds = %.preheader
  %77 = load i64, ptr %8, align 8, !tbaa !12
  %78 = inttoptr i64 %77 to ptr
  %sext56 = shl i64 %.141, 32
  %79 = ashr exact i64 %sext56, 29
  %80 = getelementptr inbounds i8, ptr %78, i64 %79
  %.not57 = icmp eq i64 %77, 0
  br i1 %.not57, label %.critedge2, label %lj_tab_getinth.exit66.thread79

lj_tab_getinth.exit66.thread79:                   ; preds = %67, %lj_tab_getinth.exit66
  %81 = phi ptr [ %80, %lj_tab_getinth.exit66 ], [ %.0.i62, %67 ]
  %82 = load i64, ptr %81, align 8, !tbaa !13
  %.not58 = icmp eq i64 %82, -1
  %83 = add i64 %.141, 1
  br i1 %.not58, label %.critedge2, label %.preheader, !llvm.loop !71

.critedge2:                                       ; preds = %lj_tab_getinth.exit66, %lj_tab_getinth.exit66.thread79, %73
  %84 = add i32 %48, -1
  br label %129

.critedge:                                        ; preds = %lj_tab_getinth.exit, %lj_tab_getinth.exit.thread76, %35
  %85 = sub nsw i64 %.039, %.040
  %86 = icmp ugt i64 %85, 1
  br i1 %86, label %.lr.ph, label %._crit_edge

.lr.ph:                                           ; preds = %.critedge, %125
  %.1100 = phi i64 [ %.2, %125 ], [ %.039, %.critedge ]
  %.24299 = phi i64 [ %.3, %125 ], [ %.040, %.critedge ]
  %87 = add nuw nsw i64 %.1100, %.24299
  %88 = lshr i64 %87, 1
  %89 = trunc nuw i64 %88 to i32
  %90 = icmp ugt i32 %5, %89
  br i1 %90, label %lj_tab_getinth.exit74, label %91

91:                                               ; preds = %.lr.ph
  %92 = sitofp i32 %89 to double
  %93 = bitcast double %92 to i64
  %.sroa.0.0.extract.trunc.i67 = trunc i64 %93 to i32
  %sh.diff.i68 = lshr i64 %93, 31
  %tr.sh.diff.i69 = trunc i64 %sh.diff.i68 to i32
  %94 = and i32 %tr.sh.diff.i69, -2
  %95 = xor i32 %94, %.sroa.0.0.extract.trunc.i67
  %96 = tail call i32 @llvm.fshl.i32(i32 %94, i32 %94, i32 14)
  %97 = sub i32 %95, %96
  %98 = tail call i32 @llvm.fshl.i32(i32 %96, i32 %96, i32 5)
  %99 = xor i32 %98, %97
  %100 = tail call i32 @llvm.fshl.i32(i32 %97, i32 %97, i32 13)
  %101 = sub i32 %99, %100
  %102 = load i64, ptr %6, align 8, !tbaa !15
  %103 = inttoptr i64 %102 to ptr
  %104 = load i32, ptr %7, align 4, !tbaa !14
  %105 = and i32 %104, %101
  %106 = zext i32 %105 to i64
  %107 = getelementptr inbounds nuw %struct.Node, ptr %103, i64 %106
  br label %108

108:                                              ; preds = %114, %91
  %.0.i70 = phi ptr [ %107, %91 ], [ %117, %114 ]
  %109 = getelementptr inbounds nuw i8, ptr %.0.i70, i64 8
  %110 = load i64, ptr %109, align 8
  %111 = icmp ult i64 %110, -1970324836974592
  %112 = bitcast i64 %110 to double
  %113 = fcmp oeq double %112, %92
  %or.cond.i71 = and i1 %111, %113
  br i1 %or.cond.i71, label %lj_tab_getinth.exit74.thread82, label %114

114:                                              ; preds = %108
  %115 = getelementptr inbounds nuw i8, ptr %.0.i70, i64 16
  %116 = load i64, ptr %115, align 8, !tbaa !16
  %117 = inttoptr i64 %116 to ptr
  %.not.i72 = icmp eq i64 %116, 0
  br i1 %.not.i72, label %lj_tab_getinth.exit74.thread, label %108, !llvm.loop !50

lj_tab_getinth.exit74:                            ; preds = %.lr.ph
  %118 = load i64, ptr %8, align 8, !tbaa !12
  %119 = inttoptr i64 %118 to ptr
  %sext54 = shl i64 %88, 32
  %120 = ashr exact i64 %sext54, 29
  %121 = getelementptr inbounds i8, ptr %119, i64 %120
  %.not55 = icmp eq i64 %118, 0
  br i1 %.not55, label %lj_tab_getinth.exit74.thread, label %lj_tab_getinth.exit74.thread82

lj_tab_getinth.exit74.thread82:                   ; preds = %108, %lj_tab_getinth.exit74
  %122 = phi ptr [ %121, %lj_tab_getinth.exit74 ], [ %.0.i70, %108 ]
  %123 = load i64, ptr %122, align 8, !tbaa !13
  %124 = icmp eq i64 %123, -1
  br i1 %124, label %lj_tab_getinth.exit74.thread, label %125

lj_tab_getinth.exit74.thread:                     ; preds = %114, %lj_tab_getinth.exit74.thread82, %lj_tab_getinth.exit74
  br label %125

125:                                              ; preds = %lj_tab_getinth.exit74.thread82, %lj_tab_getinth.exit74.thread
  %.3 = phi i64 [ %.24299, %lj_tab_getinth.exit74.thread ], [ %88, %lj_tab_getinth.exit74.thread82 ]
  %.2 = phi i64 [ %88, %lj_tab_getinth.exit74.thread ], [ %.1100, %lj_tab_getinth.exit74.thread82 ]
  %126 = sub nsw i64 %.2, %.3
  %127 = icmp ugt i64 %126, 1
  br i1 %127, label %.lr.ph, label %._crit_edge, !llvm.loop !72

._crit_edge:                                      ; preds = %125, %.critedge
  %.242.lcssa = phi i64 [ %.040, %.critedge ], [ %.3, %125 ]
  %128 = trunc nuw i64 %.242.lcssa to i32
  br label %129

129:                                              ; preds = %._crit_edge, %.critedge2
  %.0 = phi i32 [ %84, %.critedge2 ], [ %128, %._crit_edge ]
  ret i32 %.0
}